target datalayout = "e-m:e-p270:32:32-p271:32:32-p272:64:64-i64:64-i128:128-f80:128-n8:16:32:64-S128"
target triple = "x86_64-pc-linux-gnu"

%struct.timespec = type { i64, i64 }
%struct.stat = type { i64, i64, i64, i32, i32, i32, i32, i64, i64, i64, i64, %struct.timespec, %struct.timespec, %struct.timespec, [3 x i64] }

@_ZZN2os4openEPKciiE26O_CLOEXEC_is_known_to_work = internal global i32 0, align 4

; Function Attrs: mustprogress nounwind uwtable
define hidden noundef i32 @_ZN2os4openEPKcii(ptr noundef %0, i32 noundef %1, i32 noundef %2) #1 align 2 {
  %4 = alloca i32, align 4
  %5 = alloca ptr, align 8
  %6 = alloca i32, align 4
  %7 = alloca i32, align 4
  %8 = alloca i32, align 4
  %9 = alloca %struct.stat, align 8
  %10 = alloca i32, align 4
  %11 = alloca i32, align 4
  %12 = alloca i32, align 4
  store ptr %0, ptr %5, align 8
  store i32 %1, ptr %6, align 4
  store i32 %2, ptr %7, align 4
  %13 = load ptr, ptr %5, align 8
  %14 = call i64 @strlen(ptr noundef %13) #13
  %15 = icmp ugt i64 %14, 2047
  br i1 %15, label %16, label %18

16:                                               ; preds = %3
  %17 = call ptr @__errno_location() #14
  store i32 36, ptr %17, align 4
  store i32 -1, ptr %4, align 4
  br label %69

18:                                               ; preds = %3
  %19 = load i32, ptr %6, align 4
  %20 = or i32 %19, 524288
  store i32 %20, ptr %6, align 4
  %21 = load ptr, ptr %5, align 8
  %22 = load i32, ptr %6, align 4
  %23 = load i32, ptr %7, align 4
  %24 = call i32 (ptr, i32, ...) @open64(ptr noundef %21, i32 noundef %22, i32 noundef %23)
  store i32 %24, ptr %8, align 4
  %25 = load i32, ptr %8, align 4
  %26 = icmp eq i32 %25, -1
  br i1 %26, label %27, label %28

27:                                               ; preds = %18
  store i32 -1, ptr %4, align 4
  br label %69

28:                                               ; preds = %18
  %29 = load i32, ptr %8, align 4
  %30 = call i32 @fstat64(i32 noundef %29, ptr noundef %9) #12
  store i32 %30, ptr %10, align 4
  %31 = getelementptr inbounds %struct.stat, ptr %9, i32 0, i32 3
  %32 = load i32, ptr %31, align 8
  store i32 %32, ptr %11, align 4
  %33 = load i32, ptr %10, align 4
  %34 = icmp ne i32 %33, -1
  br i1 %34, label %35, label %44

35:                                               ; preds = %28
  %36 = load i32, ptr %11, align 4
  %37 = and i32 %36, 61440
  %38 = icmp eq i32 %37, 16384
  br i1 %38, label %39, label %43

39:                                               ; preds = %35
  %40 = call ptr @__errno_location() #14
  store i32 21, ptr %40, align 4
  %41 = load i32, ptr %8, align 4
  %42 = call i32 @close(i32 noundef %41)
  store i32 -1, ptr %4, align 4
  br label %69

43:                                               ; preds = %35
  br label %47

44:                                               ; preds = %28
  %45 = load i32, ptr %8, align 4
  %46 = call i32 @close(i32 noundef %45)
  store i32 -1, ptr %4, align 4
  br label %69

47:                                               ; preds = %43
  %48 = load i32, ptr @_ZZN2os4openEPKciiE26O_CLOEXEC_is_known_to_work, align 4
  %49 = icmp ne i32 %48, 0
  br i1 %49, label %67, label %50

50:                                               ; preds = %47
  %51 = load i32, ptr %8, align 4
  %52 = call i32 (i32, i32, ...) @fcntl64(i32 noundef %51, i32 noundef 1)
  store i32 %52, ptr %12, align 4
  %53 = load i32, ptr %12, align 4
  %54 = icmp ne i32 %53, -1
  br i1 %54, label %55, label %66

55:                                               ; preds = %50
  %56 = load i32, ptr %12, align 4
  %57 = and i32 %56, 1
  %58 = icmp ne i32 %57, 0
  br i1 %58, label %59, label %60

59:                                               ; preds = %55
  store i32 1, ptr @_ZZN2os4openEPKciiE26O_CLOEXEC_is_known_to_work, align 4
  br label %65

60:                                               ; preds = %55
  %61 = load i32, ptr %8, align 4
  %62 = load i32, ptr %12, align 4
  %63 = or i32 %62, 1
  %64 = call i32 (i32, i32, ...) @fcntl64(i32 noundef %61, i32 noundef 2, i32 noundef %63)
  br label %65

65:                                               ; preds = %60, %59
  br label %66

66:                                               ; preds = %65, %50
  br label %67

67:                                               ; preds = %66, %47
  %68 = load i32, ptr %8, align 4
  store i32 %68, ptr %4, align 4
  br label %69

69:                                               ; preds = %67, %44, %39, %27, %16
  %70 = load i32, ptr %4, align 4
  ret i32 %70
}