; Function Attrs: mustprogress nounwind uwtable
define hidden noundef i32 @_ZN2os4openEPKcii(ptr nocapture noundef readonly %0, i32 noundef %1, i32 noundef %2) local_unnamed_addr #0 align 2 {
  %4 = alloca %struct.stat, align 8
  %5 = tail call i64 @strlen(ptr noundef nonnull dereferenceable(1) %0) #27
  %6 = icmp ugt i64 %5, 2047
  br i1 %6, label %7, label %9

7:                                                ; preds = %3
  %8 = tail call ptr @__errno_location() #28
  store i32 36, ptr %8, align 4
  br label %34

9:                                                ; preds = %3
  %10 = or i32 %1, 524288
  %11 = tail call i32 (ptr, i32, ...) @open64(ptr noundef %0, i32 noundef %10, i32 noundef %2) #26
  %12 = icmp eq i32 %11, -1
  br i1 %12, label %34, label %13

13:                                               ; preds = %9
  %14 = call i32 @fstat64(i32 noundef %11, ptr noundef nonnull %4) #26
  %.not = icmp eq i32 %14, -1
  br i1 %.not, label %23, label %15

15:                                               ; preds = %13
  %16 = getelementptr inbounds i8, ptr %4, i64 24
  %17 = load i32, ptr %16, align 8
  %18 = and i32 %17, 61440
  %19 = icmp eq i32 %18, 16384
  br i1 %19, label %20, label %25

20:                                               ; preds = %15
  %21 = tail call ptr @__errno_location() #28
  store i32 21, ptr %21, align 4
  %22 = tail call i32 @close(i32 noundef %11) #26
  br label %34

23:                                               ; preds = %13
  %24 = tail call i32 @close(i32 noundef %11) #26
  br label %34

25:                                               ; preds = %15
  %.b = load i1, ptr @_ZZN2os4openEPKciiE26O_CLOEXEC_is_known_to_work, align 4
  br i1 %.b, label %34, label %26

26:                                               ; preds = %25
  %27 = tail call i32 (i32, i32, ...) @fcntl64(i32 noundef %11, i32 noundef 1) #26
  %.not19 = icmp eq i32 %27, -1
  br i1 %.not19, label %34, label %28

28:                                               ; preds = %26
  %29 = and i32 %27, 1
  %.not20 = icmp eq i32 %29, 0
  br i1 %.not20, label %31, label %30

30:                                               ; preds = %28
  store i1 true, ptr @_ZZN2os4openEPKciiE26O_CLOEXEC_is_known_to_work, align 4
  br label %34

31:                                               ; preds = %28
  %32 = or disjoint i32 %27, 1
  %33 = tail call i32 (i32, i32, ...) @fcntl64(i32 noundef %11, i32 noundef 2, i32 noundef %32) #26
  br label %34

34:                                               ; preds = %25, %30, %31, %26, %9, %23, %20, %7
  %.0 = phi i32 [ -1, %7 ], [ -1, %20 ], [ -1, %23 ], [ -1, %9 ], [ %11, %26 ], [ %11, %31 ], [ %11, %30 ], [ %11, %25 ]
  ret i32 %.0
}